; Function Attrs: mustprogress nofree nounwind willreturn memory(read) uwtable
define dso_local i32 @_ZNK5clang14ObjCMethodDecl9getEndLocEv(ptr noundef nonnull align 8 dereferenceable(136) %0) local_unnamed_addr #8 align 2 {
  %2 = load ptr, ptr %0, align 8
  %3 = getelementptr inbounds i8, ptr %2, i64 64
  %4 = load ptr, ptr %3, align 8
  %5 = tail call noundef ptr %4(ptr noundef nonnull align 8 dereferenceable(136) %0) #23
  %.not = icmp eq ptr %5, null
  br i1 %.not, label %8, label %6

6:                                                ; preds = %1
  %7 = tail call i32 @_ZNK5clang4Stmt9getEndLocEv(ptr noundef nonnull align 8 dereferenceable(8) %5) #24
  br label %10

8:                                                ; preds = %1
  %9 = getelementptr inbounds nuw i8, ptr %0, i64 108
  %.sroa.0.0.copyload = load i32, ptr %9, align 4
  br label %10

10:                                               ; preds = %8, %6
  %.sroa.0.0 = phi i32 [ %7, %6 ], [ %.sroa.0.0.copyload, %8 ]
  ret i32 %.sroa.0.0
}